target datalayout = "e-m:e-p270:32:32-p271:32:32-p272:64:64-i64:64-i128:128-f80:128-n8:16:32:64-S128"
target triple = "x86_64-pc-linux-gnu"

%struct.pmix_output_desc_t = type { i8, i8, i32, i8, i32, ptr, ptr, i32, ptr, i32, i8, i8, i8, i8, ptr, i32, i32 }

@prte_hwloc_base_output = external global i32, align 4
@pmix_output_info = external global [0 x %struct.pmix_output_desc_t], align 8
@prte_hwloc_default_cpu_list = external global ptr, align 8
@.str.4 = private unnamed_addr constant [60 x i8] c"hwloc:base: no cpus specified - using root available cpuset\00", align 1
@.str.5 = private unnamed_addr constant [29 x i8] c"hwloc:base: filtering cpuset\00", align 1
@prte_hwloc_default_use_hwthread_cpus = external global i8, align 1

; Function Attrs: nounwind uwtable
define ptr @prte_hwloc_base_filter_cpus(ptr noundef %0) #0 {
  %2 = alloca ptr, align 8
  %3 = alloca ptr, align 8
  store ptr %0, ptr %2, align 8, !tbaa !3
  call void @llvm.lifetime.start.p0(i64 8, ptr %3) #10
  store ptr null, ptr %3, align 8, !tbaa !27
  %4 = load ptr, ptr @prte_hwloc_default_cpu_list, align 8, !tbaa !26
  %5 = icmp eq ptr null, %4
  br i1 %5, label %6, label %27

6:                                                ; preds = %1
  %7 = load i32, ptr @prte_hwloc_base_output, align 4, !tbaa !19
  %8 = icmp sge i32 %7, 0
  br i1 %8, label %9, label %21

9:                                                ; preds = %6
  %10 = load i32, ptr @prte_hwloc_base_output, align 4, !tbaa !19
  %11 = icmp slt i32 %10, 64
  br i1 %11, label %12, label %21

12:                                               ; preds = %9
  %13 = load i32, ptr @prte_hwloc_base_output, align 4, !tbaa !19
  %14 = sext i32 %13 to i64
  %15 = getelementptr inbounds [0 x %struct.pmix_output_desc_t], ptr @pmix_output_info, i64 0, i64 %14
  %16 = getelementptr inbounds nuw %struct.pmix_output_desc_t, ptr %15, i32 0, i32 2
  %17 = load i32, ptr %16, align 4, !tbaa !24
  %18 = icmp sge i32 %17, 5
  br i1 %18, label %19, label %21

19:                                               ; preds = %12
  %20 = load i32, ptr @prte_hwloc_base_output, align 4, !tbaa !19
  call void (i32, ptr, ...) @pmix_output(i32 noundef %20, ptr noundef @.str.4)
  br label %21

21:                                               ; preds = %19, %12, %9, %6
  %22 = call noalias ptr @hwloc_bitmap_alloc()
  store ptr %22, ptr %3, align 8, !tbaa !27
  %23 = load ptr, ptr %3, align 8, !tbaa !27
  %24 = load ptr, ptr %2, align 8, !tbaa !3
  %25 = call ptr @hwloc_topology_get_allowed_cpuset(ptr noundef %24) #11
  %26 = call i32 @hwloc_bitmap_copy(ptr noundef %23, ptr noundef %25)
  br label %48

27:                                               ; preds = %1
  %28 = load i32, ptr @prte_hwloc_base_output, align 4, !tbaa !19
  %29 = icmp sge i32 %28, 0
  br i1 %29, label %30, label %42

30:                                               ; preds = %27
  %31 = load i32, ptr @prte_hwloc_base_output, align 4, !tbaa !19
  %32 = icmp slt i32 %31, 64
  br i1 %32, label %33, label %42

33:                                               ; preds = %30
  %34 = load i32, ptr @prte_hwloc_base_output, align 4, !tbaa !19
  %35 = sext i32 %34 to i64
  %36 = getelementptr inbounds [0 x %struct.pmix_output_desc_t], ptr @pmix_output_info, i64 0, i64 %35
  %37 = getelementptr inbounds nuw %struct.pmix_output_desc_t, ptr %36, i32 0, i32 2
  %38 = load i32, ptr %37, align 4, !tbaa !24
  %39 = icmp sge i32 %38, 5
  br i1 %39, label %40, label %42

40:                                               ; preds = %33
  %41 = load i32, ptr @prte_hwloc_base_output, align 4, !tbaa !19
  call void (i32, ptr, ...) @pmix_output(i32 noundef %41, ptr noundef @.str.5)
  br label %42

42:                                               ; preds = %40, %33, %30, %27
  %43 = load ptr, ptr %2, align 8, !tbaa !3
  %44 = load i8, ptr @prte_hwloc_default_use_hwthread_cpus, align 1, !tbaa !20, !range !22, !noundef !23
  %45 = trunc i8 %44 to i1
  %46 = load ptr, ptr @prte_hwloc_default_cpu_list, align 8, !tbaa !26
  %47 = call ptr @prte_hwloc_base_generate_cpuset(ptr noundef %43, i1 noundef zeroext %45, ptr noundef %46)
  store ptr %47, ptr %3, align 8, !tbaa !27
  br label %48

48:                                               ; preds = %42, %21
  %49 = load ptr, ptr %3, align 8, !tbaa !27
  call void @llvm.lifetime.end.p0(i64 8, ptr %3) #10
  ret ptr %49
}