; Function Attrs: nounwind uwtable
define noundef ptr @prte_hwloc_base_filter_cpus(ptr noundef %0) local_unnamed_addr #0 {
  %2 = load ptr, ptr @prte_hwloc_default_cpu_list, align 8, !tbaa !20
  %3 = icmp eq ptr %2, null
  %4 = load i32, ptr @prte_hwloc_base_output, align 4, !tbaa !16
  %or.cond = icmp ult i32 %4, 64
  br i1 %3, label %5, label %16

5:                                                ; preds = %1
  br i1 %or.cond, label %6, label %12

6:                                                ; preds = %5
  %7 = zext nneg i32 %4 to i64
  %8 = getelementptr inbounds nuw [0 x %struct.pmix_output_desc_t], ptr @pmix_output_info, i64 0, i64 %7, i32 2
  %9 = load i32, ptr %8, align 4, !tbaa !17
  %10 = icmp sgt i32 %9, 4
  br i1 %10, label %11, label %12

11:                                               ; preds = %6
  tail call void (i32, ptr, ...) @pmix_output(i32 noundef %4, ptr noundef nonnull @.str.4) #18
  br label %12

12:                                               ; preds = %11, %6, %5
  %13 = tail call noalias ptr @hwloc_bitmap_alloc() #18
  %14 = tail call ptr @hwloc_topology_get_allowed_cpuset(ptr noundef %0) #19
  %15 = tail call i32 @hwloc_bitmap_copy(ptr noundef %13, ptr noundef %14) #18
  br label %28

16:                                               ; preds = %1
  br i1 %or.cond, label %17, label %23

17:                                               ; preds = %16
  %18 = zext nneg i32 %4 to i64
  %19 = getelementptr inbounds nuw [0 x %struct.pmix_output_desc_t], ptr @pmix_output_info, i64 0, i64 %18, i32 2
  %20 = load i32, ptr %19, align 4, !tbaa !17
  %21 = icmp sgt i32 %20, 4
  br i1 %21, label %22, label %23

22:                                               ; preds = %17
  tail call void (i32, ptr, ...) @pmix_output(i32 noundef %4, ptr noundef nonnull @.str.5) #18
  %.pre = load ptr, ptr @prte_hwloc_default_cpu_list, align 8, !tbaa !20
  br label %23

23:                                               ; preds = %22, %17, %16
  %24 = phi ptr [ %.pre, %22 ], [ %2, %17 ], [ %2, %16 ]
  %25 = load i8, ptr @prte_hwloc_default_use_hwthread_cpus, align 1, !tbaa !49, !range !38, !noundef !39
  %26 = trunc nuw i8 %25 to i1
  %27 = tail call ptr @prte_hwloc_base_generate_cpuset(ptr noundef %0, i1 noundef zeroext %26, ptr noundef %24)
  br label %28

28:                                               ; preds = %23, %12
  %.0 = phi ptr [ %13, %12 ], [ %27, %23 ]
  ret ptr %.0
}